target datalayout = "e-m:e-p270:32:32-p271:32:32-p272:64:64-i64:64-i128:128-f80:128-n8:16:32:64-S128"
target triple = "x86_64-pc-linux-gnu"

%struct.llhttp__internal_s = type { i32, ptr, ptr, i32, ptr, ptr, ptr, ptr, i64, i8, i8, i8, i8, i8, i16, i8, i8, i16, i16, i8, ptr }

@.str.1 = private unnamed_addr constant [7 x i8] c"Paused\00", align 1

; Function Attrs: nounwind uwtable
define void @llhttp_pause(ptr noundef %0) #0 {
  %2 = alloca ptr, align 8
  store ptr %0, ptr %2, align 8, !tbaa !3
  %3 = load ptr, ptr %2, align 8, !tbaa !3
  %4 = getelementptr inbounds nuw %struct.llhttp__internal_s, ptr %3, i32 0, i32 3
  %5 = load i32, ptr %4, align 8, !tbaa !29
  %6 = icmp ne i32 %5, 0
  br i1 %6, label %7, label %8

7:                                                ; preds = %1
  br label %13

8:                                                ; preds = %1
  %9 = load ptr, ptr %2, align 8, !tbaa !3
  %10 = getelementptr inbounds nuw %struct.llhttp__internal_s, ptr %9, i32 0, i32 3
  store i32 21, ptr %10, align 8, !tbaa !29
  %11 = load ptr, ptr %2, align 8, !tbaa !3
  %12 = getelementptr inbounds nuw %struct.llhttp__internal_s, ptr %11, i32 0, i32 4
  store ptr @.str.1, ptr %12, align 8, !tbaa !33
  br label %13

13:                                               ; preds = %8, %7
  ret void
}