; Function Attrs: mustprogress nofree norecurse nosync nounwind willreturn memory(argmem: readwrite) uwtable
define void @llhttp_pause(ptr noundef captures(none) %0) local_unnamed_addr #6 {
  %2 = getelementptr inbounds nuw i8, ptr %0, i64 24
  %3 = load i32, ptr %2, align 8, !tbaa !20
  %.not = icmp eq i32 %3, 0
  br i1 %.not, label %4, label %6

4:                                                ; preds = %1
  store i32 21, ptr %2, align 8, !tbaa !20
  %5 = getelementptr inbounds nuw i8, ptr %0, i64 32
  store ptr @.str.1, ptr %5, align 8, !tbaa !24
  br label %6

6:                                                ; preds = %1, %4
  ret void
}